target datalayout = "e-m:e-p270:32:32-p271:32:32-p272:64:64-i64:64-i128:128-f80:128-n8:16:32:64-S128"
target triple = "x86_64-pc-linux-gnu"

%struct.mlib_image = type { i32, i32, i32, i32, i32, i32, ptr, ptr, [4 x i8], i32, i32, [3 x i32] }

; Function Attrs: nounwind uwtable
define ptr @j2d_mlib_ImageCreateStruct(i32 noundef %0, i32 noundef %1, i32 noundef %2, i32 noundef %3, i32 noundef %4, ptr noundef %5) #0 {
  %7 = alloca ptr, align 8
  %8 = alloca i32, align 4
  %9 = alloca i32, align 4
  %10 = alloca i32, align 4
  %11 = alloca i32, align 4
  %12 = alloca i32, align 4
  %13 = alloca ptr, align 8
  %14 = alloca ptr, align 8
  store i32 %0, ptr %8, align 4
  store i32 %1, ptr %9, align 4
  store i32 %2, ptr %10, align 4
  store i32 %3, ptr %11, align 4
  store i32 %4, ptr %12, align 4
  store ptr %5, ptr %13, align 8
  %15 = load i32, ptr %12, align 4
  %16 = icmp sle i32 %15, 0
  br i1 %16, label %17, label %18

17:                                               ; preds = %6
  store ptr null, ptr %7, align 8
  br label %37

18:                                               ; preds = %6
  %19 = call ptr @mlib_malloc(i32 noundef 64)
  store ptr %19, ptr %14, align 8
  %20 = load ptr, ptr %14, align 8
  %21 = icmp eq ptr %20, null
  br i1 %21, label %22, label %23

22:                                               ; preds = %18
  store ptr null, ptr %7, align 8
  br label %37

23:                                               ; preds = %18
  %24 = load ptr, ptr %14, align 8
  %25 = load i32, ptr %8, align 4
  %26 = load i32, ptr %9, align 4
  %27 = load i32, ptr %10, align 4
  %28 = load i32, ptr %11, align 4
  %29 = load i32, ptr %12, align 4
  %30 = load ptr, ptr %13, align 8
  %31 = call ptr @mlib_ImageSet(ptr noundef %24, i32 noundef %25, i32 noundef %26, i32 noundef %27, i32 noundef %28, i32 noundef %29, ptr noundef %30)
  %32 = icmp eq ptr %31, null
  br i1 %32, label %33, label %35

33:                                               ; preds = %23
  %34 = load ptr, ptr %14, align 8
  call void @mlib_free(ptr noundef %34)
  store ptr null, ptr %14, align 8
  br label %35

35:                                               ; preds = %33, %23
  %36 = load ptr, ptr %14, align 8
  store ptr %36, ptr %7, align 8
  br label %37

37:                                               ; preds = %35, %22, %17
  %38 = load ptr, ptr %7, align 8
  ret ptr %38
}

; Function Attrs: nounwind uwtable
define hidden ptr @mlib_ImageCreateSubimage(ptr noundef %0, i32 noundef %1, i32 noundef %2, i32 noundef %3, i32 noundef %4) #0 {
  %6 = alloca ptr, align 8
  %7 = alloca ptr, align 8
  %8 = alloca i32, align 4
  %9 = alloca i32, align 4
  %10 = alloca i32, align 4
  %11 = alloca i32, align 4
  %12 = alloca ptr, align 8
  %13 = alloca i32, align 4
  %14 = alloca i32, align 4
  %15 = alloca i32, align 4
  %16 = alloca i32, align 4
  %17 = alloca i32, align 4
  %18 = alloca i32, align 4
  %19 = alloca ptr, align 8
  store ptr %0, ptr %7, align 8
  store i32 %1, ptr %8, align 4
  store i32 %2, ptr %9, align 4
  store i32 %3, ptr %10, align 4
  store i32 %4, ptr %11, align 4
  store i32 0, ptr %18, align 4
  %20 = load i32, ptr %10, align 4
  %21 = icmp sle i32 %20, 0
  br i1 %21, label %28, label %22

22:                                               ; preds = %5
  %23 = load i32, ptr %11, align 4
  %24 = icmp sle i32 %23, 0
  br i1 %24, label %28, label %25

25:                                               ; preds = %22
  %26 = load ptr, ptr %7, align 8
  %27 = icmp eq ptr %26, null
  br i1 %27, label %28, label %29

28:                                               ; preds = %25, %22, %5
  store ptr null, ptr %6, align 8
  br label %178

29:                                               ; preds = %25
  %30 = load ptr, ptr %7, align 8
  %31 = getelementptr inbounds %struct.mlib_image, ptr %30, i32 0, i32 0
  %32 = load i32, ptr %31, align 8
  store i32 %32, ptr %13, align 4
  %33 = load ptr, ptr %7, align 8
  %34 = getelementptr inbounds %struct.mlib_image, ptr %33, i32 0, i32 1
  %35 = load i32, ptr %34, align 4
  store i32 %35, ptr %14, align 4
  %36 = load ptr, ptr %7, align 8
  %37 = getelementptr inbounds %struct.mlib_image, ptr %36, i32 0, i32 2
  %38 = load i32, ptr %37, align 8
  store i32 %38, ptr %15, align 4
  %39 = load ptr, ptr %7, align 8
  %40 = getelementptr inbounds %struct.mlib_image, ptr %39, i32 0, i32 3
  %41 = load i32, ptr %40, align 4
  store i32 %41, ptr %16, align 4
  %42 = load ptr, ptr %7, align 8
  %43 = getelementptr inbounds %struct.mlib_image, ptr %42, i32 0, i32 4
  %44 = load i32, ptr %43, align 8
  store i32 %44, ptr %17, align 4
  %45 = load i32, ptr %8, align 4
  %46 = load i32, ptr %10, align 4
  %47 = add nsw i32 %45, %46
  %48 = icmp sle i32 %47, 0
  br i1 %48, label %62, label %49

49:                                               ; preds = %29
  %50 = load i32, ptr %9, align 4
  %51 = load i32, ptr %11, align 4
  %52 = add nsw i32 %50, %51
  %53 = icmp sle i32 %52, 0
  br i1 %53, label %62, label %54

54:                                               ; preds = %49
  %55 = load i32, ptr %8, align 4
  %56 = load i32, ptr %15, align 4
  %57 = icmp sge i32 %55, %56
  br i1 %57, label %62, label %58

58:                                               ; preds = %54
  %59 = load i32, ptr %9, align 4
  %60 = load i32, ptr %16, align 4
  %61 = icmp sge i32 %59, %60
  br i1 %61, label %62, label %63

62:                                               ; preds = %58, %54, %49, %29
  store ptr null, ptr %6, align 8
  br label %178

63:                                               ; preds = %58
  %64 = load i32, ptr %8, align 4
  %65 = icmp slt i32 %64, 0
  br i1 %65, label %66, label %70

66:                                               ; preds = %63
  %67 = load i32, ptr %8, align 4
  %68 = load i32, ptr %10, align 4
  %69 = add nsw i32 %68, %67
  store i32 %69, ptr %10, align 4
  store i32 0, ptr %8, align 4
  br label %70

70:                                               ; preds = %66, %63
  %71 = load i32, ptr %9, align 4
  %72 = icmp slt i32 %71, 0
  br i1 %72, label %73, label %77

73:                                               ; preds = %70
  %74 = load i32, ptr %9, align 4
  %75 = load i32, ptr %11, align 4
  %76 = add nsw i32 %75, %74
  store i32 %76, ptr %11, align 4
  store i32 0, ptr %9, align 4
  br label %77

77:                                               ; preds = %73, %70
  %78 = load i32, ptr %8, align 4
  %79 = load i32, ptr %10, align 4
  %80 = add nsw i32 %78, %79
  %81 = load i32, ptr %15, align 4
  %82 = icmp sgt i32 %80, %81
  br i1 %82, label %83, label %87

83:                                               ; preds = %77
  %84 = load i32, ptr %15, align 4
  %85 = load i32, ptr %8, align 4
  %86 = sub nsw i32 %84, %85
  store i32 %86, ptr %10, align 4
  br label %87

87:                                               ; preds = %83, %77
  %88 = load i32, ptr %9, align 4
  %89 = load i32, ptr %11, align 4
  %90 = add nsw i32 %88, %89
  %91 = load i32, ptr %16, align 4
  %92 = icmp sgt i32 %90, %91
  br i1 %92, label %93, label %97

93:                                               ; preds = %87
  %94 = load i32, ptr %16, align 4
  %95 = load i32, ptr %9, align 4
  %96 = sub nsw i32 %94, %95
  store i32 %96, ptr %11, align 4
  br label %97

97:                                               ; preds = %93, %87
  br label %98

98:                                               ; preds = %97
  %99 = load ptr, ptr %7, align 8
  %100 = getelementptr inbounds %struct.mlib_image, ptr %99, i32 0, i32 6
  %101 = load ptr, ptr %100, align 8
  %102 = load i32, ptr %9, align 4
  %103 = load i32, ptr %17, align 4
  %104 = mul nsw i32 %102, %103
  %105 = sext i32 %104 to i64
  %106 = getelementptr inbounds i8, ptr %101, i64 %105
  store ptr %106, ptr %19, align 8
  %107 = load i32, ptr %13, align 4
  switch i32 %107, label %158 [
    i32 5, label %108
    i32 4, label %116
    i32 3, label %116
    i32 6, label %124
    i32 2, label %124
    i32 1, label %132
    i32 0, label %139
  ]

108:                                              ; preds = %98
  %109 = load ptr, ptr %19, align 8
  %110 = load i32, ptr %8, align 4
  %111 = load i32, ptr %14, align 4
  %112 = mul nsw i32 %110, %111
  %113 = mul nsw i32 %112, 8
  %114 = sext i32 %113 to i64
  %115 = getelementptr inbounds i8, ptr %109, i64 %114
  store ptr %115, ptr %19, align 8
  br label %159

116:                                              ; preds = %98, %98
  %117 = load ptr, ptr %19, align 8
  %118 = load i32, ptr %8, align 4
  %119 = load i32, ptr %14, align 4
  %120 = mul nsw i32 %118, %119
  %121 = mul nsw i32 %120, 4
  %122 = sext i32 %121 to i64
  %123 = getelementptr inbounds i8, ptr %117, i64 %122
  store ptr %123, ptr %19, align 8
  br label %159

124:                                              ; preds = %98, %98
  %125 = load ptr, ptr %19, align 8
  %126 = load i32, ptr %8, align 4
  %127 = load i32, ptr %14, align 4
  %128 = mul nsw i32 %126, %127
  %129 = mul nsw i32 %128, 2
  %130 = sext i32 %129 to i64
  %131 = getelementptr inbounds i8, ptr %125, i64 %130
  store ptr %131, ptr %19, align 8
  br label %159

132:                                              ; preds = %98
  %133 = load ptr, ptr %19, align 8
  %134 = load i32, ptr %8, align 4
  %135 = load i32, ptr %14, align 4
  %136 = mul nsw i32 %134, %135
  %137 = sext i32 %136 to i64
  %138 = getelementptr inbounds i8, ptr %133, i64 %137
  store ptr %138, ptr %19, align 8
  br label %159

139:                                              ; preds = %98
  %140 = load ptr, ptr %7, align 8
  %141 = getelementptr inbounds %struct.mlib_image, ptr %140, i32 0, i32 9
  %142 = load i32, ptr %141, align 4
  store i32 %142, ptr %18, align 4
  %143 = load ptr, ptr %19, align 8
  %144 = load i32, ptr %8, align 4
  %145 = load i32, ptr %14, align 4
  %146 = mul nsw i32 %144, %145
  %147 = load i32, ptr %18, align 4
  %148 = add nsw i32 %146, %147
  %149 = sdiv i32 %148, 8
  %150 = sext i32 %149 to i64
  %151 = getelementptr inbounds i8, ptr %143, i64 %150
  store ptr %151, ptr %19, align 8
  %152 = load i32, ptr %8, align 4
  %153 = load i32, ptr %14, align 4
  %154 = mul nsw i32 %152, %153
  %155 = load i32, ptr %18, align 4
  %156 = add nsw i32 %154, %155
  %157 = and i32 %156, 7
  store i32 %157, ptr %18, align 4
  br label %159

158:                                              ; preds = %98
  store ptr null, ptr %6, align 8
  br label %178

159:                                              ; preds = %139, %132, %124, %116, %108
  %160 = load i32, ptr %13, align 4
  %161 = load i32, ptr %14, align 4
  %162 = load i32, ptr %10, align 4
  %163 = load i32, ptr %11, align 4
  %164 = load i32, ptr %17, align 4
  %165 = load ptr, ptr %19, align 8
  %166 = call ptr @j2d_mlib_ImageCreateStruct(i32 noundef %160, i32 noundef %161, i32 noundef %162, i32 noundef %163, i32 noundef %164, ptr noundef %165)
  store ptr %166, ptr %12, align 8
  %167 = load ptr, ptr %12, align 8
  %168 = icmp ne ptr %167, null
  br i1 %168, label %169, label %176

169:                                              ; preds = %159
  %170 = load i32, ptr %13, align 4
  %171 = icmp eq i32 %170, 0
  br i1 %171, label %172, label %176

172:                                              ; preds = %169
  %173 = load i32, ptr %18, align 4
  %174 = load ptr, ptr %12, align 8
  %175 = getelementptr inbounds %struct.mlib_image, ptr %174, i32 0, i32 9
  store i32 %173, ptr %175, align 4
  br label %176

176:                                              ; preds = %172, %169, %159
  %177 = load ptr, ptr %12, align 8
  store ptr %177, ptr %6, align 8
  br label %178

178:                                              ; preds = %176, %158, %62, %28
  %179 = load ptr, ptr %6, align 8
  ret ptr %179
}