; Function Attrs: nounwind uwtable
define hidden ptr @mlib_ImageCreateSubimage(ptr noundef readonly %0, i32 noundef %1, i32 noundef %2, i32 noundef %3, i32 noundef %4) local_unnamed_addr #1 {
  %6 = icmp slt i32 %3, 1
  %7 = icmp slt i32 %4, 1
  %or.cond = or i1 %6, %7
  %8 = icmp eq ptr %0, null
  %or.cond3 = or i1 %8, %or.cond
  br i1 %or.cond3, label %j2d_mlib_ImageCreateStruct.exit.thread, label %9

9:                                                ; preds = %5
  %10 = load i32, ptr %0, align 8
  %11 = getelementptr inbounds i8, ptr %0, i64 4
  %12 = load i32, ptr %11, align 4
  %13 = getelementptr inbounds i8, ptr %0, i64 8
  %14 = load i32, ptr %13, align 8
  %15 = getelementptr inbounds i8, ptr %0, i64 12
  %16 = load i32, ptr %15, align 4
  %17 = getelementptr inbounds i8, ptr %0, i64 16
  %18 = load i32, ptr %17, align 8
  %19 = add nsw i32 %3, %1
  %20 = icmp slt i32 %19, 1
  br i1 %20, label %j2d_mlib_ImageCreateStruct.exit.thread, label %21

21:                                               ; preds = %9
  %22 = add nsw i32 %4, %2
  %23 = icmp sgt i32 %22, 0
  %.not = icmp sgt i32 %14, %1
  %or.cond90 = select i1 %23, i1 %.not, i1 false
  %.not89 = icmp sgt i32 %16, %2
  %or.cond91 = select i1 %or.cond90, i1 %.not89, i1 false
  br i1 %or.cond91, label %24, label %j2d_mlib_ImageCreateStruct.exit.thread

24:                                               ; preds = %21
  %25 = icmp slt i32 %1, 0
  %spec.select = select i1 %25, i32 %19, i32 %3
  %spec.select92 = tail call i32 @llvm.smax.i32(i32 %1, i32 0)
  %26 = icmp slt i32 %2, 0
  %.077 = select i1 %26, i32 %22, i32 %4
  %.075 = tail call i32 @llvm.smax.i32(i32 %2, i32 0)
  %27 = add nuw nsw i32 %spec.select, %spec.select92
  %28 = icmp sgt i32 %27, %14
  %29 = sub nsw i32 %14, %spec.select92
  %.1 = select i1 %28, i32 %29, i32 %spec.select
  %30 = add nuw nsw i32 %.077, %.075
  %31 = icmp sgt i32 %30, %16
  %32 = sub nsw i32 %16, %.075
  %.178 = select i1 %31, i32 %32, i32 %.077
  %33 = getelementptr inbounds i8, ptr %0, i64 24
  %34 = load ptr, ptr %33, align 8
  %35 = mul nsw i32 %18, %.075
  %36 = sext i32 %35 to i64
  %37 = getelementptr inbounds i8, ptr %34, i64 %36
  switch i32 %10, label %j2d_mlib_ImageCreateStruct.exit.thread [
    i32 5, label %38
    i32 4, label %43
    i32 3, label %43
    i32 6, label %48
    i32 2, label %48
    i32 1, label %53
    i32 0, label %57
  ]

38:                                               ; preds = %24
  %39 = shl i32 %spec.select92, 3
  %40 = mul i32 %39, %12
  %41 = sext i32 %40 to i64
  %42 = getelementptr inbounds i8, ptr %37, i64 %41
  br label %66

43:                                               ; preds = %24, %24
  %44 = shl i32 %spec.select92, 2
  %45 = mul i32 %44, %12
  %46 = sext i32 %45 to i64
  %47 = getelementptr inbounds i8, ptr %37, i64 %46
  br label %66

48:                                               ; preds = %24, %24
  %49 = shl nuw i32 %spec.select92, 1
  %50 = mul i32 %49, %12
  %51 = sext i32 %50 to i64
  %52 = getelementptr inbounds i8, ptr %37, i64 %51
  br label %66

53:                                               ; preds = %24
  %54 = mul nsw i32 %12, %spec.select92
  %55 = sext i32 %54 to i64
  %56 = getelementptr inbounds i8, ptr %37, i64 %55
  br label %66

57:                                               ; preds = %24
  %58 = getelementptr inbounds i8, ptr %0, i64 44
  %59 = load i32, ptr %58, align 4
  %60 = mul nsw i32 %12, %spec.select92
  %61 = add nsw i32 %59, %60
  %62 = sdiv i32 %61, 8
  %63 = sext i32 %62 to i64
  %64 = getelementptr inbounds i8, ptr %37, i64 %63
  %65 = and i32 %61, 7
  br label %66

66:                                               ; preds = %57, %53, %48, %43, %38
  %.072 = phi i32 [ %65, %57 ], [ 0, %53 ], [ 0, %48 ], [ 0, %43 ], [ 0, %38 ]
  %.0 = phi ptr [ %64, %57 ], [ %56, %53 ], [ %52, %48 ], [ %47, %43 ], [ %42, %38 ]
  %67 = icmp slt i32 %18, 1
  br i1 %67, label %j2d_mlib_ImageCreateStruct.exit.thread, label %68

68:                                               ; preds = %66
  %69 = tail call ptr @mlib_malloc(i32 noundef 64) #7
  %70 = icmp eq ptr %69, null
  br i1 %70, label %j2d_mlib_ImageCreateStruct.exit.thread, label %71

71:                                               ; preds = %68
  %72 = tail call ptr @mlib_ImageSet(ptr noundef nonnull %69, i32 noundef %10, i32 noundef %12, i32 noundef %.1, i32 noundef %.178, i32 noundef %18, ptr noundef %.0)
  %73 = icmp eq ptr %72, null
  br i1 %73, label %74, label %j2d_mlib_ImageCreateStruct.exit

74:                                               ; preds = %71
  tail call void @mlib_free(ptr noundef nonnull %69) #7
  br label %j2d_mlib_ImageCreateStruct.exit.thread

j2d_mlib_ImageCreateStruct.exit:                  ; preds = %71
  %75 = icmp eq i32 %10, 0
  br i1 %75, label %76, label %j2d_mlib_ImageCreateStruct.exit.thread

76:                                               ; preds = %j2d_mlib_ImageCreateStruct.exit
  %77 = getelementptr inbounds i8, ptr %69, i64 44
  store i32 %.072, ptr %77, align 4
  br label %j2d_mlib_ImageCreateStruct.exit.thread

j2d_mlib_ImageCreateStruct.exit.thread:           ; preds = %74, %68, %66, %j2d_mlib_ImageCreateStruct.exit, %76, %24, %9, %21, %5
  %.073 = phi ptr [ null, %5 ], [ null, %21 ], [ null, %9 ], [ null, %24 ], [ %69, %76 ], [ %69, %j2d_mlib_ImageCreateStruct.exit ], [ null, %66 ], [ null, %68 ], [ null, %74 ]
  ret ptr %.073
}